; Function Attrs: mustprogress uwtable
define internal void @"_ZZN19cmUVJobServerClient4Impl20RequestImplicitTokenEvEN3$_08__invokeEP9uv_idle_s"(ptr noundef %0) #3 align 2 personality ptr @__gxx_personality_v0 {
  %2 = tail call i32 @uv_idle_stop(ptr noundef %0)
  %3 = load ptr, ptr %0, align 8
  %4 = getelementptr inbounds i8, ptr %3, i64 96
  %5 = load i32, ptr %4, align 8
  %6 = add i32 %5, 1
  store i32 %6, ptr %4, align 8
  %7 = getelementptr inbounds i8, ptr %3, i64 48
  %8 = load ptr, ptr %7, align 8
  %.not.i.i.not.i.i = icmp eq ptr %8, null
  br i1 %.not.i.i.not.i.i, label %12, label %_ZNKSt8functionIFvvEEclEv.exit.i.i

_ZNKSt8functionIFvvEEclEv.exit.i.i:               ; preds = %1
  %9 = getelementptr inbounds i8, ptr %3, i64 32
  %10 = getelementptr inbounds i8, ptr %3, i64 56
  %11 = load ptr, ptr %10, align 8
  tail call void %11(ptr noundef nonnull align 8 dereferenceable(16) %9)
  br label %"_ZZN19cmUVJobServerClient4Impl20RequestImplicitTokenEvENK3$_0clEP9uv_idle_s.exit"

12:                                               ; preds = %1
  store i32 %5, ptr %4, align 8
  %13 = icmp eq i32 %5, 0
  br i1 %13, label %14, label %26

14:                                               ; preds = %12
  %15 = getelementptr inbounds i8, ptr %3, i64 100
  %16 = load i32, ptr %15, align 4
  %.not.i.i2.i.i = icmp eq i32 %16, 0
  br i1 %.not.i.i2.i.i, label %"_ZZN19cmUVJobServerClient4Impl20RequestImplicitTokenEvENK3$_0clEP9uv_idle_s.exit", label %17

17:                                               ; preds = %14
  %18 = add i32 %16, -1
  store i32 %18, ptr %15, align 4
  %19 = icmp eq i32 %18, 0
  br i1 %19, label %20, label %_ZN19cmUVJobServerClient4Impl19DecrementNeedTokensEv.exit.i.i.i.i

20:                                               ; preds = %17
  %21 = load ptr, ptr %3, align 8
  %22 = getelementptr inbounds i8, ptr %21, i64 32
  %23 = load ptr, ptr %22, align 8
  tail call void %23(ptr noundef nonnull align 8 dereferenceable(104) %3)
  br label %_ZN19cmUVJobServerClient4Impl19DecrementNeedTokensEv.exit.i.i.i.i

_ZN19cmUVJobServerClient4Impl19DecrementNeedTokensEv.exit.i.i.i.i: ; preds = %20, %17
  %24 = getelementptr inbounds i8, ptr %3, i64 16
  %25 = tail call noundef i32 @_ZN2cm11uv_idle_ptr5startEPFvP9uv_idle_sE(ptr noundef nonnull align 8 dereferenceable(16) %24, ptr noundef nonnull @"_ZZN19cmUVJobServerClient4Impl20RequestImplicitTokenEvEN3$_08__invokeEP9uv_idle_s")
  br label %"_ZZN19cmUVJobServerClient4Impl20RequestImplicitTokenEvENK3$_0clEP9uv_idle_s.exit"

26:                                               ; preds = %12
  %27 = load ptr, ptr %3, align 8
  %28 = getelementptr inbounds i8, ptr %27, i64 16
  %29 = load ptr, ptr %28, align 8
  tail call void %29(ptr noundef nonnull align 8 dereferenceable(104) %3)
  br label %"_ZZN19cmUVJobServerClient4Impl20RequestImplicitTokenEvENK3$_0clEP9uv_idle_s.exit"

"_ZZN19cmUVJobServerClient4Impl20RequestImplicitTokenEvENK3$_0clEP9uv_idle_s.exit": ; preds = %_ZNKSt8functionIFvvEEclEv.exit.i.i, %14, %_ZN19cmUVJobServerClient4Impl19DecrementNeedTokensEv.exit.i.i.i.i, %26
  ret void
}